; Function Attrs: mustprogress uwtable
define dso_local void @_ZN12AbsExtension24OutputFirstFunInvocationERSoP18FunctionInvocation(ptr nonnull readnone align 8 captures(none) %0, ptr noundef nonnull align 8 dereferenceable(8) %1, ptr noundef %2) unnamed_addr #3 align 2 {
  %4 = tail call noundef nonnull align 8 dereferenceable(8) ptr @_ZSt16__ostream_insertIcSt11char_traitsIcEERSt13basic_ostreamIT_T0_ES6_PKS3_l(ptr noundef nonnull align 8 dereferenceable(8) %1, ptr noundef nonnull @.str, i64 noundef 4)
  %5 = load ptr, ptr %2, align 8, !tbaa !9
  %6 = getelementptr inbounds nuw i8, ptr %5, i64 80
  %7 = load ptr, ptr %6, align 8
  tail call void %7(ptr noundef nonnull align 8 dereferenceable(56) %2, ptr noundef nonnull align 8 dereferenceable(8) %1)
  %8 = tail call noundef nonnull align 8 dereferenceable(8) ptr @_ZSt16__ostream_insertIcSt11char_traitsIcEERSt13basic_ostreamIT_T0_ES6_PKS3_l(ptr noundef nonnull align 8 dereferenceable(8) %1, ptr noundef nonnull @.str.4, i64 noundef 1)
  %9 = load ptr, ptr %1, align 8, !tbaa !9
  %10 = getelementptr i8, ptr %9, i64 -24
  %11 = load i64, ptr %10, align 8
  %12 = getelementptr inbounds i8, ptr %1, i64 %11
  %13 = getelementptr inbounds nuw i8, ptr %12, i64 240
  %14 = load ptr, ptr %13, align 8, !tbaa !77
  %.not.i.i.i = icmp eq ptr %14, null
  br i1 %.not.i.i.i, label %15, label %_ZSt13__check_facetISt5ctypeIcEERKT_PS3_.exit.i.i

15:                                               ; preds = %3
  tail call void @_ZSt16__throw_bad_castv() #22
  unreachable

_ZSt13__check_facetISt5ctypeIcEERKT_PS3_.exit.i.i: ; preds = %3
  %16 = getelementptr inbounds nuw i8, ptr %14, i64 56
  %17 = load i8, ptr %16, align 8, !tbaa !84
  %.not.i1.i.i = icmp eq i8 %17, 0
  br i1 %.not.i1.i.i, label %21, label %18

18:                                               ; preds = %_ZSt13__check_facetISt5ctypeIcEERKT_PS3_.exit.i.i
  %19 = getelementptr inbounds nuw i8, ptr %14, i64 67
  %20 = load i8, ptr %19, align 1, !tbaa !33
  br label %_ZSt4endlIcSt11char_traitsIcEERSt13basic_ostreamIT_T0_ES6_.exit

21:                                               ; preds = %_ZSt13__check_facetISt5ctypeIcEERKT_PS3_.exit.i.i
  tail call void @_ZNKSt5ctypeIcE13_M_widen_initEv(ptr noundef nonnull align 8 dereferenceable(570) %14)
  %22 = load ptr, ptr %14, align 8, !tbaa !9
  %23 = getelementptr inbounds nuw i8, ptr %22, i64 48
  %24 = load ptr, ptr %23, align 8
  %25 = tail call noundef signext i8 %24(ptr noundef nonnull align 8 dereferenceable(570) %14, i8 noundef signext 10)
  br label %_ZSt4endlIcSt11char_traitsIcEERSt13basic_ostreamIT_T0_ES6_.exit

_ZSt4endlIcSt11char_traitsIcEERSt13basic_ostreamIT_T0_ES6_.exit: ; preds = %18, %21
  %.0.i.i.i = phi i8 [ %20, %18 ], [ %25, %21 ]
  %26 = tail call noundef nonnull align 8 dereferenceable(8) ptr @_ZNSo3putEc(ptr noundef nonnull align 8 dereferenceable(8) %1, i8 noundef signext %.0.i.i.i)
  %27 = tail call noundef nonnull align 8 dereferenceable(8) ptr @_ZNSo5flushEv(ptr noundef nonnull align 8 dereferenceable(8) %26)
  ret void
}